target datalayout = "e-m:e-p270:32:32-p271:32:32-p272:64:64-i64:64-i128:128-f80:128-n8:16:32:64-S128"
target triple = "x86_64-pc-linux-gnu"

@.str.145 = private unnamed_addr constant [5 x i8] c"%03d\00", align 1
@.str.146 = private unnamed_addr constant [49 x i8] c"All digits in the preceding group are valid (%d)\00", align 1
@.str.147 = private unnamed_addr constant [96 x i8] c"First two digits in the preceding group are valid, and the third digit (i.e. 0) is padding (%d)\00", align 1
@.str.148 = private unnamed_addr constant [90 x i8] c"First digit in the preceding group is valid, and the second and third 0s are padding (%d)\00", align 1
@.str.149 = private unnamed_addr constant [13 x i8] c"Invalid (%d)\00", align 1

; Function Attrs: nounwind uwtable
define internal void @rach_dialed_num_grp1234_fmt(ptr noundef %0, i32 noundef %1) #0 {
  %3 = alloca ptr, align 8
  %4 = alloca i32, align 4
  store ptr %0, ptr %3, align 8
  store i32 %1, ptr %4, align 4
  %5 = load i32, ptr %4, align 4
  %6 = icmp ule i32 %5, 999
  br i1 %6, label %7, label %11

7:                                                ; preds = %2
  %8 = load ptr, ptr %3, align 8
  %9 = load i32, ptr %4, align 4
  %10 = call i32 (ptr, i64, ptr, ...) @snprintf(ptr noundef %8, i64 noundef 240, ptr noundef @.str.145, i32 noundef %9) #4
  br label %39

11:                                               ; preds = %2
  %12 = load i32, ptr %4, align 4
  %13 = icmp eq i32 %12, 1023
  br i1 %13, label %14, label %18

14:                                               ; preds = %11
  %15 = load ptr, ptr %3, align 8
  %16 = load i32, ptr %4, align 4
  %17 = call i32 (ptr, i64, ptr, ...) @snprintf(ptr noundef %15, i64 noundef 240, ptr noundef @.str.146, i32 noundef %16) #4
  br label %38

18:                                               ; preds = %11
  %19 = load i32, ptr %4, align 4
  %20 = icmp eq i32 %19, 1022
  br i1 %20, label %21, label %25

21:                                               ; preds = %18
  %22 = load ptr, ptr %3, align 8
  %23 = load i32, ptr %4, align 4
  %24 = call i32 (ptr, i64, ptr, ...) @snprintf(ptr noundef %22, i64 noundef 240, ptr noundef @.str.147, i32 noundef %23) #4
  br label %37

25:                                               ; preds = %18
  %26 = load i32, ptr %4, align 4
  %27 = icmp eq i32 %26, 1021
  br i1 %27, label %28, label %32

28:                                               ; preds = %25
  %29 = load ptr, ptr %3, align 8
  %30 = load i32, ptr %4, align 4
  %31 = call i32 (ptr, i64, ptr, ...) @snprintf(ptr noundef %29, i64 noundef 240, ptr noundef @.str.148, i32 noundef %30) #4
  br label %36

32:                                               ; preds = %25
  %33 = load ptr, ptr %3, align 8
  %34 = load i32, ptr %4, align 4
  %35 = call i32 (ptr, i64, ptr, ...) @snprintf(ptr noundef %33, i64 noundef 240, ptr noundef @.str.149, i32 noundef %34) #4
  br label %36

36:                                               ; preds = %32, %28
  br label %37

37:                                               ; preds = %36, %21
  br label %38

38:                                               ; preds = %37, %14
  br label %39

39:                                               ; preds = %38, %7
  ret void
}