; Function Attrs: nofree nounwind uwtable
define internal void @rach_dialed_num_grp1234_fmt(ptr noundef writeonly captures(none) %0, i32 noundef %1) #1 {
  %3 = icmp ult i32 %1, 1000
  br i1 %3, label %4, label %6

4:                                                ; preds = %2
  %5 = tail call i32 (ptr, i64, ptr, ...) @snprintf(ptr noundef nonnull dereferenceable(1) %0, i64 noundef 240, ptr noundef nonnull @.str.145, i32 noundef %1) #7
  br label %15

6:                                                ; preds = %2
  switch i32 %1, label %13 [
    i32 1023, label %7
    i32 1022, label %9
    i32 1021, label %11
  ]

7:                                                ; preds = %6
  %8 = tail call i32 (ptr, i64, ptr, ...) @snprintf(ptr noundef nonnull dereferenceable(1) %0, i64 noundef 240, ptr noundef nonnull @.str.146, i32 noundef 1023) #7
  br label %15

9:                                                ; preds = %6
  %10 = tail call i32 (ptr, i64, ptr, ...) @snprintf(ptr noundef nonnull dereferenceable(1) %0, i64 noundef 240, ptr noundef nonnull @.str.147, i32 noundef 1022) #7
  br label %15

11:                                               ; preds = %6
  %12 = tail call i32 (ptr, i64, ptr, ...) @snprintf(ptr noundef nonnull dereferenceable(1) %0, i64 noundef 240, ptr noundef nonnull @.str.148, i32 noundef 1021) #7
  br label %15

13:                                               ; preds = %6
  %14 = tail call i32 (ptr, i64, ptr, ...) @snprintf(ptr noundef nonnull dereferenceable(1) %0, i64 noundef 240, ptr noundef nonnull @.str.149, i32 noundef %1) #7
  br label %15

15:                                               ; preds = %7, %11, %13, %9, %4
  ret void
}